; Function Attrs: mustprogress uwtable
define void @_ZN9grpc_core23GrpcXdsTransportFactory16GrpcXdsTransport17GrpcStreamingCall13OnRequestSentEPvN4absl12lts_202407226StatusE(ptr noundef %0, ptr noundef readonly captures(none) %1) #3 align 2 personality ptr @__gxx_personality_v0 {
  %3 = getelementptr inbounds nuw i8, ptr %0, i64 96
  %4 = load ptr, ptr %3, align 8, !tbaa !16
  invoke void @grpc_byte_buffer_destroy(ptr noundef %4)
          to label %5 unwind label %21

5:                                                ; preds = %2
  store ptr null, ptr %3, align 8, !tbaa !16
  %6 = getelementptr inbounds nuw i8, ptr %0, i64 24
  %7 = load ptr, ptr %6, align 8, !tbaa !14
  %8 = load i64, ptr %1, align 8, !tbaa !94
  %9 = icmp eq i64 %8, 1
  %10 = load ptr, ptr %7, align 8, !tbaa !8
  %11 = getelementptr inbounds nuw i8, ptr %10, i64 16
  %12 = load ptr, ptr %11, align 8
  invoke void %12(ptr noundef nonnull align 8 dereferenceable(8) %7, i1 noundef zeroext %9)
          to label %13 unwind label %21

13:                                               ; preds = %5
  %14 = getelementptr inbounds nuw i8, ptr %0, i64 8
  %15 = atomicrmw sub ptr %14, i64 1 acq_rel, align 8
  %16 = icmp eq i64 %15, 1
  br i1 %16, label %17, label %_ZN9grpc_core13RefCountedPtrINS_23GrpcXdsTransportFactory16GrpcXdsTransport17GrpcStreamingCallEED2Ev.exit, !prof !75

17:                                               ; preds = %13
  %18 = load ptr, ptr %0, align 8, !tbaa !8
  %19 = getelementptr inbounds nuw i8, ptr %18, i64 16
  %20 = load ptr, ptr %19, align 8
  tail call void %20(ptr noundef nonnull align 8 dereferenceable(16) %0) #37
  br label %_ZN9grpc_core13RefCountedPtrINS_23GrpcXdsTransportFactory16GrpcXdsTransport17GrpcStreamingCallEED2Ev.exit

_ZN9grpc_core13RefCountedPtrINS_23GrpcXdsTransportFactory16GrpcXdsTransport17GrpcStreamingCallEED2Ev.exit: ; preds = %13, %17
  ret void

21:                                               ; preds = %2, %5
  %22 = landingpad { ptr, i32 }
          cleanup
  %23 = getelementptr inbounds nuw i8, ptr %0, i64 8
  %24 = atomicrmw sub ptr %23, i64 1 acq_rel, align 8
  %25 = icmp eq i64 %24, 1
  br i1 %25, label %26, label %_ZN9grpc_core13RefCountedPtrINS_23GrpcXdsTransportFactory16GrpcXdsTransport17GrpcStreamingCallEED2Ev.exit3, !prof !75

26:                                               ; preds = %21
  %27 = load ptr, ptr %0, align 8, !tbaa !8
  %28 = getelementptr inbounds nuw i8, ptr %27, i64 16
  %29 = load ptr, ptr %28, align 8
  tail call void %29(ptr noundef nonnull align 8 dereferenceable(16) %0) #37
  br label %_ZN9grpc_core13RefCountedPtrINS_23GrpcXdsTransportFactory16GrpcXdsTransport17GrpcStreamingCallEED2Ev.exit3

_ZN9grpc_core13RefCountedPtrINS_23GrpcXdsTransportFactory16GrpcXdsTransport17GrpcStreamingCallEED2Ev.exit3: ; preds = %21, %26
  resume { ptr, i32 } %22
}